target datalayout = "e-m:e-p270:32:32-p271:32:32-p272:64:64-i64:64-i128:128-f80:128-n8:16:32:64-S128"
target triple = "x86_64-pc-linux-gnu"

@.str = private unnamed_addr constant [22 x i8] c"burst_buffer_common.c\00", align 1
@.str.9 = private unnamed_addr constant [53 x i8] c"%s: %s: %s:%d: %s: safe_write (%zu of %d) failed: %m\00", align 1
@plugin_type = external constant [0 x i8], align 1
@.str.10 = private unnamed_addr constant [56 x i8] c"%s: %s: %s:%d: %s: safe_write (%zu of %d) partial write\00", align 1
@.str.111 = private unnamed_addr constant [27 x i8] c"Error creating file %s, %m\00", align 1
@.str.112 = private unnamed_addr constant [12 x i8] c"buf is NULL\00", align 1
@__func__.bb_write_file = private unnamed_addr constant [14 x i8] c"bb_write_file\00", align 1
@.str.113 = private unnamed_addr constant [26 x i8] c"Error writing file %s: %m\00", align 1

; Function Attrs: nounwind uwtable
define dso_local i32 @bb_write_file(ptr noundef %0, ptr noundef %1) #0 {
  %3 = alloca i32, align 4
  %4 = alloca ptr, align 8
  %5 = alloca ptr, align 8
  %6 = alloca i32, align 4
  %7 = alloca i32, align 4
  %8 = alloca i32, align 4
  %9 = alloca i64, align 8
  %10 = alloca ptr, align 8
  %11 = alloca i32, align 4
  store ptr %0, ptr %4, align 8
  store ptr %1, ptr %5, align 8
  call void @llvm.lifetime.start.p0(i64 4, ptr %6) #9
  call void @llvm.lifetime.start.p0(i64 4, ptr %7) #9
  %12 = load ptr, ptr %4, align 8
  %13 = call i32 @unlink(ptr noundef %12) #9
  %14 = load ptr, ptr %4, align 8
  %15 = call i32 @creat(ptr noundef %14, i32 noundef 384)
  store i32 %15, ptr %6, align 4
  %16 = load i32, ptr %6, align 4
  %17 = icmp slt i32 %16, 0
  br i1 %17, label %18, label %23

18:                                               ; preds = %2
  %19 = load ptr, ptr %4, align 8
  %20 = call i32 (ptr, ...) @error(ptr noundef @.str.111, ptr noundef %19)
  %21 = call ptr @__errno_location() #12
  %22 = load i32, ptr %21, align 4
  store i32 %22, ptr %3, align 4
  store i32 1, ptr %8, align 4
  br label %108

23:                                               ; preds = %2
  %24 = load ptr, ptr %5, align 8
  %25 = icmp ne ptr %24, null
  br i1 %25, label %28, label %26

26:                                               ; preds = %23
  %27 = call i32 (ptr, ...) @error(ptr noundef @.str.112)
  store i32 -1, ptr %3, align 4
  store i32 1, ptr %8, align 4
  br label %108

28:                                               ; preds = %23
  %29 = load ptr, ptr %5, align 8
  %30 = call i64 @strlen(ptr noundef %29) #11
  %31 = trunc i64 %30 to i32
  store i32 %31, ptr %7, align 4
  br label %32

32:                                               ; preds = %28
  call void @llvm.lifetime.start.p0(i64 8, ptr %9) #9
  %33 = load i32, ptr %7, align 4
  %34 = sext i32 %33 to i64
  store i64 %34, ptr %9, align 8
  call void @llvm.lifetime.start.p0(i64 8, ptr %10) #9
  %35 = load ptr, ptr %5, align 8
  store ptr %35, ptr %10, align 8
  call void @llvm.lifetime.start.p0(i64 4, ptr %11) #9
  br label %36

36:                                               ; preds = %94, %55, %32
  %37 = load i64, ptr %9, align 8
  %38 = icmp ugt i64 %37, 0
  br i1 %38, label %39, label %95

39:                                               ; preds = %36
  %40 = load i32, ptr %6, align 4
  %41 = load ptr, ptr %10, align 8
  %42 = load i64, ptr %9, align 8
  %43 = call i64 @write(i32 noundef %40, ptr noundef %41, i64 noundef %42)
  %44 = trunc i64 %43 to i32
  store i32 %44, ptr %11, align 4
  %45 = load i32, ptr %11, align 4
  %46 = icmp slt i32 %45, 0
  br i1 %46, label %47, label %69

47:                                               ; preds = %39
  %48 = call ptr @__errno_location() #12
  %49 = load i32, ptr %48, align 4
  %50 = icmp eq i32 %49, 11
  br i1 %50, label %55, label %51

51:                                               ; preds = %47
  %52 = call ptr @__errno_location() #12
  %53 = load i32, ptr %52, align 4
  %54 = icmp eq i32 %53, 4
  br i1 %54, label %55, label %56

55:                                               ; preds = %51, %47
  br label %36, !llvm.loop !40

56:                                               ; preds = %51
  br label %57

57:                                               ; preds = %56
  br label %58

58:                                               ; preds = %57
  %59 = call i32 @get_log_level()
  %60 = icmp sge i32 %59, 5
  br i1 %60, label %61, label %64

61:                                               ; preds = %58
  %62 = load i64, ptr %9, align 8
  %63 = load i32, ptr %7, align 4
  call void (i32, ptr, ...) @log_var(i32 noundef 5, ptr noundef @.str.9, ptr noundef @plugin_type, ptr noundef @__func__.bb_write_file, ptr noundef @.str, i32 noundef 2092, ptr noundef @__func__.bb_write_file, i64 noundef %62, i32 noundef %63)
  br label %64

64:                                               ; preds = %61, %58
  br label %65

65:                                               ; preds = %64
  br label %66

66:                                               ; preds = %65
  br label %67

67:                                               ; preds = %66
  br label %68

68:                                               ; preds = %67
  store i32 10, ptr %8, align 4
  br label %96

69:                                               ; preds = %39
  %70 = load i32, ptr %11, align 4
  %71 = load ptr, ptr %10, align 8
  %72 = sext i32 %70 to i64
  %73 = getelementptr inbounds i8, ptr %71, i64 %72
  store ptr %73, ptr %10, align 8
  %74 = load i32, ptr %11, align 4
  %75 = sext i32 %74 to i64
  %76 = load i64, ptr %9, align 8
  %77 = sub i64 %76, %75
  store i64 %77, ptr %9, align 8
  %78 = load i64, ptr %9, align 8
  %79 = icmp ugt i64 %78, 0
  br i1 %79, label %80, label %93

80:                                               ; preds = %69
  br label %81

81:                                               ; preds = %80
  br label %82

82:                                               ; preds = %81
  %83 = call i32 @get_log_level()
  %84 = icmp sge i32 %83, 7
  br i1 %84, label %85, label %88

85:                                               ; preds = %82
  %86 = load i64, ptr %9, align 8
  %87 = load i32, ptr %7, align 4
  call void (i32, ptr, ...) @log_var(i32 noundef 7, ptr noundef @.str.10, ptr noundef @plugin_type, ptr noundef @__func__.bb_write_file, ptr noundef @.str, i32 noundef 2092, ptr noundef @__func__.bb_write_file, i64 noundef %86, i32 noundef %87)
  br label %88

88:                                               ; preds = %85, %82
  br label %89

89:                                               ; preds = %88
  br label %90

90:                                               ; preds = %89
  br label %91

91:                                               ; preds = %90
  br label %92

92:                                               ; preds = %91
  br label %93

93:                                               ; preds = %92, %69
  br label %94

94:                                               ; preds = %93
  br label %36, !llvm.loop !40

95:                                               ; preds = %36
  store i32 0, ptr %8, align 4
  br label %96

96:                                               ; preds = %68, %95
  call void @llvm.lifetime.end.p0(i64 4, ptr %11) #9
  call void @llvm.lifetime.end.p0(i64 8, ptr %10) #9
  call void @llvm.lifetime.end.p0(i64 8, ptr %9) #9
  %97 = load i32, ptr %8, align 4
  switch i32 %97, label %108 [
    i32 0, label %98
    i32 10, label %103
  ]

98:                                               ; preds = %96
  br label %99

99:                                               ; preds = %98
  br label %100

100:                                              ; preds = %99
  %101 = load i32, ptr %6, align 4
  %102 = call i32 @close(i32 noundef %101)
  store i32 0, ptr %3, align 4
  store i32 1, ptr %8, align 4
  br label %108

103:                                              ; preds = %96
  %104 = load ptr, ptr %4, align 8
  %105 = call i32 (ptr, ...) @error(ptr noundef @.str.113, ptr noundef %104)
  %106 = load i32, ptr %6, align 4
  %107 = call i32 @close(i32 noundef %106)
  store i32 -1, ptr %3, align 4
  store i32 1, ptr %8, align 4
  br label %108

108:                                              ; preds = %103, %100, %96, %26, %18
  call void @llvm.lifetime.end.p0(i64 4, ptr %7) #9
  call void @llvm.lifetime.end.p0(i64 4, ptr %6) #9
  %109 = load i32, ptr %3, align 4
  ret i32 %109
}