; Function Attrs: nounwind uwtable
define dso_local i32 @bb_write_file(ptr noundef %0, ptr noundef readonly captures(address_is_null) %1) local_unnamed_addr #0 {
  %3 = tail call i32 @unlink(ptr noundef %0) #17
  %4 = tail call i32 @creat(ptr noundef %0, i32 noundef 384) #17
  %5 = icmp slt i32 %4, 0
  br i1 %5, label %6, label %10

6:                                                ; preds = %2
  %7 = tail call i32 (ptr, ...) @error(ptr noundef nonnull @.str.111, ptr noundef %0) #17
  %8 = tail call ptr @__errno_location() #20
  %9 = load i32, ptr %8, align 4
  br label %39

10:                                               ; preds = %2
  %.not = icmp eq ptr %1, null
  br i1 %.not, label %11, label %13

11:                                               ; preds = %10
  %12 = tail call i32 (ptr, ...) @error(ptr noundef nonnull @.str.112) #17
  br label %39

13:                                               ; preds = %10
  %14 = tail call i64 @strlen(ptr noundef nonnull dereferenceable(1) %1) #19
  %15 = trunc i64 %14 to i32
  %sext = shl i64 %14, 32
  %.not3448 = icmp eq i64 %sext, 0
  br i1 %.not3448, label %.outer._crit_edge, label %.lr.ph.preheader

.lr.ph.preheader:                                 ; preds = %13
  %16 = ashr exact i64 %sext, 32
  br label %.lr.ph.split

.lr.ph.split:                                     ; preds = %.lr.ph.split.backedge, %.lr.ph.preheader
  %.026.ph51 = phi ptr [ %1, %.lr.ph.preheader ], [ %29, %.lr.ph.split.backedge ]
  %.027.ph49 = phi i64 [ %16, %.lr.ph.preheader ], [ %30, %.lr.ph.split.backedge ]
  %17 = tail call i64 @write(i32 noundef %4, ptr noundef %.026.ph51, i64 noundef %.027.ph49) #17
  %18 = and i64 %17, 2147483648
  %.not3546 = icmp eq i64 %18, 0
  br i1 %.not3546, label %.split.us, label %.lr.ph47

.lr.ph47:                                         ; preds = %.lr.ph.split
  %19 = tail call ptr @__errno_location() #20
  br label %20

20:                                               ; preds = %.lr.ph47, %22
  %21 = load i32, ptr %19, align 4
  switch i32 %21, label %.split41.us [
    i32 11, label %22
    i32 4, label %22
  ]

22:                                               ; preds = %20, %20
  %23 = tail call i64 @write(i32 noundef %4, ptr noundef %.026.ph51, i64 noundef %.027.ph49) #17
  %24 = and i64 %23, 2147483648
  %.not35 = icmp eq i64 %24, 0
  br i1 %.not35, label %.split.us, label %20

.split41.us:                                      ; preds = %20
  %25 = tail call i32 @get_log_level() #17
  %26 = icmp sgt i32 %25, 4
  br i1 %26, label %27, label %36

27:                                               ; preds = %.split41.us
  tail call void (i32, ptr, ...) @log_var(i32 noundef 5, ptr noundef nonnull @.str.9, ptr noundef nonnull @plugin_type, ptr noundef nonnull @__func__.bb_write_file, ptr noundef nonnull @.str, i32 noundef 2092, ptr noundef nonnull @__func__.bb_write_file, i64 noundef %.027.ph49, i32 noundef %15) #17
  br label %36

.split.us:                                        ; preds = %22, %.lr.ph.split
  %.us-phi = phi i64 [ %17, %.lr.ph.split ], [ %23, %22 ]
  %28 = and i64 %.us-phi, 2147483647
  %29 = getelementptr inbounds nuw i8, ptr %.026.ph51, i64 %28
  %30 = sub i64 %.027.ph49, %28
  %.not36 = icmp eq i64 %30, 0
  br i1 %.not36, label %.outer._crit_edge, label %31

31:                                               ; preds = %.split.us
  %32 = tail call i32 @get_log_level() #17
  %33 = icmp sgt i32 %32, 6
  br i1 %33, label %34, label %.lr.ph.split.backedge

34:                                               ; preds = %31
  tail call void (i32, ptr, ...) @log_var(i32 noundef 7, ptr noundef nonnull @.str.10, ptr noundef nonnull @plugin_type, ptr noundef nonnull @__func__.bb_write_file, ptr noundef nonnull @.str, i32 noundef 2092, ptr noundef nonnull @__func__.bb_write_file, i64 noundef %30, i32 noundef %15) #17
  br label %.lr.ph.split.backedge

.lr.ph.split.backedge:                            ; preds = %34, %31
  br label %.lr.ph.split, !llvm.loop !40

.outer._crit_edge:                                ; preds = %.split.us, %13
  %35 = tail call i32 @close(i32 noundef %4) #17
  br label %39

36:                                               ; preds = %27, %.split41.us
  %37 = tail call i32 (ptr, ...) @error(ptr noundef nonnull @.str.113, ptr noundef %0) #17
  %38 = tail call i32 @close(i32 noundef %4) #17
  br label %39

39:                                               ; preds = %36, %.outer._crit_edge, %11, %6
  %.0 = phi i32 [ %9, %6 ], [ -1, %36 ], [ 0, %.outer._crit_edge ], [ -1, %11 ]
  ret i32 %.0
}